; Function Attrs: nounwind uwtable
define zeroext range(i8 0, 3) i8 @l_Std_Tactic_BVDecide_LRAT_Internal_Result_ofNat(ptr noundef %0) local_unnamed_addr #1 {
  %2 = ptrtoint ptr %0 to i64
  %3 = and i64 %2, 1
  %.not = icmp eq i64 %3, 0
  br i1 %.not, label %lean_nat_le.exit, label %4, !prof !15

4:                                                ; preds = %1
  %.not12 = icmp ult ptr %0, inttoptr (i64 3 to ptr)
  br i1 %.not12, label %9, label %6

lean_nat_le.exit:                                 ; preds = %1
  %5 = tail call zeroext i1 @lean_nat_big_le(ptr noundef nonnull inttoptr (i64 3 to ptr), ptr noundef %0) #5
  br i1 %5, label %.critedge.i9, label %9

6:                                                ; preds = %4
  %7 = icmp eq ptr %0, inttoptr (i64 3 to ptr)
  br label %lean_nat_eq.exit

.critedge.i9:                                     ; preds = %lean_nat_le.exit
  %8 = tail call zeroext i1 @lean_nat_big_eq(ptr noundef %0, ptr noundef nonnull inttoptr (i64 3 to ptr)) #5
  br label %lean_nat_eq.exit

lean_nat_eq.exit:                                 ; preds = %6, %.critedge.i9
  %.0.i10 = phi i1 [ %7, %6 ], [ %8, %.critedge.i9 ]
  %. = select i1 %.0.i10, i8 1, i8 2
  br label %9

9:                                                ; preds = %4, %lean_nat_le.exit, %lean_nat_eq.exit
  %.0 = phi i8 [ %., %lean_nat_eq.exit ], [ 0, %lean_nat_le.exit ], [ 0, %4 ]
  ret i8 %.0
}